; Function Attrs: mustprogress nofree norecurse nosync nounwind willreturn memory(readwrite, inaccessiblemem: none) uwtable
define noundef i32 @H5EA_patch_file(ptr noundef captures(none) %0, ptr noundef %1) local_unnamed_addr #3 {
  %3 = load i8, ptr @H5EA_init_g, align 1, !tbaa !3, !range !7, !noundef !8
  %4 = trunc nuw i8 %3 to i1
  %5 = load i8, ptr @H5_libterm_g, align 1, !range !7
  %6 = trunc nuw i8 %5 to i1
  %7 = select i1 %4, i1 true, i1 %6
  br i1 %7, label %8, label %.thread, !prof !9

.thread:                                          ; preds = %2
  store i8 1, ptr @H5EA_init_g, align 1, !tbaa !3
  br label %11

8:                                                ; preds = %2
  %9 = xor i1 %6, true
  %10 = select i1 %4, i1 true, i1 %9
  br i1 %10, label %11, label %19, !prof !10

11:                                               ; preds = %.thread, %8
  %12 = getelementptr inbounds nuw i8, ptr %0, i64 8
  %13 = load ptr, ptr %12, align 8, !tbaa !37
  %.not = icmp eq ptr %13, %1
  %.pre = load ptr, ptr %0, align 8, !tbaa !34
  br i1 %.not, label %14, label %17

14:                                               ; preds = %11
  %15 = getelementptr inbounds nuw i8, ptr %.pre, i64 384
  %16 = load ptr, ptr %15, align 8, !tbaa !38
  %.not7 = icmp eq ptr %16, %1
  br i1 %.not7, label %19, label %17

17:                                               ; preds = %14, %11
  %18 = getelementptr inbounds nuw i8, ptr %.pre, i64 384
  store ptr %1, ptr %18, align 8, !tbaa !38
  store ptr %1, ptr %12, align 8, !tbaa !37
  br label %19

19:                                               ; preds = %14, %17, %8
  ret i32 0
}